target datalayout = "e-m:e-p270:32:32-p271:32:32-p272:64:64-i64:64-i128:128-f80:128-n8:16:32:64-S128"
target triple = "x86_64-pc-linux-gnu"

%struct.FLAC__OggDecoderAspect = type { i32, i64, %struct.ogg_stream_state, %struct.ogg_sync_state, i32, i32, i32, i32, i32, i32, i32, i32, i32, %struct.ogg_page, i32, %struct.ogg_packet, ptr, %struct.FLAC__OggDecoderAspect_TargetLink, i32, i32, i32, i32, i32, i32 }
%struct.ogg_stream_state = type { ptr, i64, i64, i64, ptr, ptr, i64, i64, i64, i64, [282 x i8], i32, i32, i32, i64, i64, i64, i64 }
%struct.ogg_sync_state = type { ptr, i32, i32, i32, i32, i32, i32 }
%struct.ogg_page = type { ptr, i64, ptr, i64 }
%struct.ogg_packet = type { ptr, i64, i64, i64, i64, i64 }
%struct.FLAC__OggDecoderAspect_TargetLink = type { i64, i64, i64, i64, i64, i32 }
%struct.FLAC__OggDecoderAspect_LinkDetails = type { i64, i64, i64, i64, i32, ptr, i32 }

@FLAC__OGG_MAPPING_FIRST_HEADER_PACKET_TYPE = external constant i8, align 1
@FLAC__OGG_MAPPING_MAGIC = external constant ptr, align 8

; Function Attrs: inlinehint nounwind sspstrong uwtable
define internal ptr @safe_realloc_nofree_mul_2op_(ptr noundef %0, i64 noundef %1, i64 noundef %2) #2 {
  %4 = alloca ptr, align 8
  %5 = alloca ptr, align 8
  %6 = alloca i64, align 8
  %7 = alloca i64, align 8
  store ptr %0, ptr %5, align 8, !tbaa !35
  store i64 %1, ptr %6, align 8, !tbaa !36
  store i64 %2, ptr %7, align 8, !tbaa !36
  %8 = load i64, ptr %6, align 8, !tbaa !36
  %9 = icmp ne i64 %8, 0
  br i1 %9, label %10, label %13

10:                                               ; preds = %3
  %11 = load i64, ptr %7, align 8, !tbaa !36
  %12 = icmp ne i64 %11, 0
  br i1 %12, label %16, label %13

13:                                               ; preds = %10, %3
  %14 = load ptr, ptr %5, align 8, !tbaa !35
  %15 = call ptr @realloc(ptr noundef %14, i64 noundef 0) #10
  store ptr %15, ptr %4, align 8
  br label %28

16:                                               ; preds = %10
  %17 = load i64, ptr %6, align 8, !tbaa !36
  %18 = load i64, ptr %7, align 8, !tbaa !36
  %19 = udiv i64 -1, %18
  %20 = icmp ugt i64 %17, %19
  br i1 %20, label %21, label %22

21:                                               ; preds = %16
  store ptr null, ptr %4, align 8
  br label %28

22:                                               ; preds = %16
  %23 = load ptr, ptr %5, align 8, !tbaa !35
  %24 = load i64, ptr %6, align 8, !tbaa !36
  %25 = load i64, ptr %7, align 8, !tbaa !36
  %26 = mul i64 %24, %25
  %27 = call ptr @realloc(ptr noundef %23, i64 noundef %26) #10
  store ptr %27, ptr %4, align 8
  br label %28

28:                                               ; preds = %22, %21, %13
  %29 = load ptr, ptr %4, align 8
  ret ptr %29
}

; Function Attrs: nounwind sspstrong uwtable
define internal i32 @process_page_(ptr noundef %0, ptr noundef %1, ptr noundef %2, ptr noundef %3) #0 {
  %5 = alloca i32, align 4
  %6 = alloca ptr, align 8
  %7 = alloca ptr, align 8
  %8 = alloca ptr, align 8
  %9 = alloca ptr, align 8
  %10 = alloca i64, align 8
  %11 = alloca ptr, align 8
  %12 = alloca ptr, align 8
  %13 = alloca i32, align 4
  store ptr %0, ptr %6, align 8, !tbaa !3
  store ptr %1, ptr %7, align 8, !tbaa !35
  store ptr %2, ptr %8, align 8, !tbaa !35
  store ptr %3, ptr %9, align 8, !tbaa !35
  %14 = load ptr, ptr %6, align 8, !tbaa !3
  %15 = getelementptr inbounds nuw %struct.FLAC__OggDecoderAspect, ptr %14, i32 0, i32 6
  %16 = load i32, ptr %15, align 8, !tbaa !25
  %17 = icmp ne i32 %16, 0
  br i1 %17, label %18, label %132

18:                                               ; preds = %4
  %19 = load ptr, ptr %6, align 8, !tbaa !3
  %20 = getelementptr inbounds nuw %struct.FLAC__OggDecoderAspect, ptr %19, i32 0, i32 13
  %21 = getelementptr inbounds nuw %struct.ogg_page, ptr %20, i32 0, i32 3
  %22 = load i64, ptr %21, align 8, !tbaa !73
  %23 = icmp sgt i64 %22, 5
  br i1 %23, label %24, label %131

24:                                               ; preds = %18
  %25 = load ptr, ptr %6, align 8, !tbaa !3
  %26 = getelementptr inbounds nuw %struct.FLAC__OggDecoderAspect, ptr %25, i32 0, i32 13
  %27 = getelementptr inbounds nuw %struct.ogg_page, ptr %26, i32 0, i32 2
  %28 = load ptr, ptr %27, align 8, !tbaa !74
  %29 = getelementptr inbounds i8, ptr %28, i64 0
  %30 = load i8, ptr %29, align 1, !tbaa !69
  %31 = zext i8 %30 to i32
  %32 = load i8, ptr @FLAC__OGG_MAPPING_FIRST_HEADER_PACKET_TYPE, align 1, !tbaa !69
  %33 = zext i8 %32 to i32
  %34 = icmp eq i32 %31, %33
  br i1 %34, label %35, label %131

35:                                               ; preds = %24
  %36 = load ptr, ptr %6, align 8, !tbaa !3
  %37 = getelementptr inbounds nuw %struct.FLAC__OggDecoderAspect, ptr %36, i32 0, i32 13
  %38 = getelementptr inbounds nuw %struct.ogg_page, ptr %37, i32 0, i32 2
  %39 = getelementptr inbounds ptr, ptr %38, i64 1
  %40 = load ptr, ptr @FLAC__OGG_MAPPING_MAGIC, align 8, !tbaa !60
  %41 = call i32 @memcmp(ptr noundef %39, ptr noundef %40, i64 noundef 4) #11
  %42 = icmp ne i32 %41, 0
  br i1 %42, label %43, label %131

43:                                               ; preds = %35
  %44 = load ptr, ptr %6, align 8, !tbaa !3
  %45 = getelementptr inbounds nuw %struct.FLAC__OggDecoderAspect, ptr %44, i32 0, i32 8
  store i32 1, ptr %45, align 8, !tbaa !43
  %46 = load ptr, ptr %6, align 8, !tbaa !3
  %47 = getelementptr inbounds nuw %struct.FLAC__OggDecoderAspect, ptr %46, i32 0, i32 13
  %48 = call i32 @ogg_page_serialno(ptr noundef %47)
  %49 = sext i32 %48 to i64
  %50 = load ptr, ptr %6, align 8, !tbaa !3
  %51 = getelementptr inbounds nuw %struct.FLAC__OggDecoderAspect, ptr %50, i32 0, i32 1
  store i64 %49, ptr %51, align 8, !tbaa !8
  %52 = load ptr, ptr %6, align 8, !tbaa !3
  %53 = getelementptr inbounds nuw %struct.FLAC__OggDecoderAspect, ptr %52, i32 0, i32 2
  %54 = load ptr, ptr %6, align 8, !tbaa !3
  %55 = getelementptr inbounds nuw %struct.FLAC__OggDecoderAspect, ptr %54, i32 0, i32 1
  %56 = load i64, ptr %55, align 8, !tbaa !8
  %57 = trunc i64 %56 to i32
  %58 = call i32 @ogg_stream_reset_serialno(ptr noundef %53, i32 noundef %57)
  %59 = load ptr, ptr %6, align 8, !tbaa !3
  %60 = getelementptr inbounds nuw %struct.FLAC__OggDecoderAspect, ptr %59, i32 0, i32 6
  store i32 0, ptr %60, align 8, !tbaa !25
  %61 = load ptr, ptr %6, align 8, !tbaa !3
  %62 = getelementptr inbounds nuw %struct.FLAC__OggDecoderAspect, ptr %61, i32 0, i32 22
  %63 = load i32, ptr %62, align 8, !tbaa !30
  %64 = load ptr, ptr %6, align 8, !tbaa !3
  %65 = getelementptr inbounds nuw %struct.FLAC__OggDecoderAspect, ptr %64, i32 0, i32 18
  %66 = load i32, ptr %65, align 8, !tbaa !32
  %67 = icmp uge i32 %63, %66
  br i1 %67, label %68, label %130

68:                                               ; preds = %43
  call void @llvm.lifetime.start.p0(i64 8, ptr %10) #9
  %69 = load ptr, ptr %6, align 8, !tbaa !3
  %70 = getelementptr inbounds nuw %struct.FLAC__OggDecoderAspect, ptr %69, i32 0, i32 22
  %71 = load i32, ptr %70, align 8, !tbaa !30
  %72 = add i32 %71, 1
  %73 = load ptr, ptr %6, align 8, !tbaa !3
  %74 = getelementptr inbounds nuw %struct.FLAC__OggDecoderAspect, ptr %73, i32 0, i32 18
  store i32 %72, ptr %74, align 8, !tbaa !32
  %75 = load ptr, ptr %6, align 8, !tbaa !3
  %76 = getelementptr inbounds nuw %struct.FLAC__OggDecoderAspect, ptr %75, i32 0, i32 1
  %77 = load i64, ptr %76, align 8, !tbaa !8
  %78 = load ptr, ptr %6, align 8, !tbaa !3
  %79 = getelementptr inbounds nuw %struct.FLAC__OggDecoderAspect, ptr %78, i32 0, i32 16
  %80 = load ptr, ptr %79, align 8, !tbaa !34
  %81 = load ptr, ptr %6, align 8, !tbaa !3
  %82 = getelementptr inbounds nuw %struct.FLAC__OggDecoderAspect, ptr %81, i32 0, i32 22
  %83 = load i32, ptr %82, align 8, !tbaa !30
  %84 = zext i32 %83 to i64
  %85 = getelementptr inbounds nuw %struct.FLAC__OggDecoderAspect_LinkDetails, ptr %80, i64 %84
  %86 = getelementptr inbounds nuw %struct.FLAC__OggDecoderAspect_LinkDetails, ptr %85, i32 0, i32 0
  store i64 %77, ptr %86, align 8, !tbaa !45
  %87 = load ptr, ptr %7, align 8, !tbaa !35
  %88 = icmp ne ptr %87, null
  br i1 %88, label %89, label %129

89:                                               ; preds = %68
  %90 = load ptr, ptr %7, align 8, !tbaa !35
  %91 = load ptr, ptr %8, align 8, !tbaa !35
  %92 = load ptr, ptr %9, align 8, !tbaa !35
  %93 = call i32 %90(ptr noundef %91, ptr noundef %10, ptr noundef %92)
  %94 = icmp eq i32 %93, 0
  br i1 %94, label %95, label %128

95:                                               ; preds = %89
  %96 = load i64, ptr %10, align 8, !tbaa !36
  %97 = load ptr, ptr %6, align 8, !tbaa !3
  %98 = getelementptr inbounds nuw %struct.FLAC__OggDecoderAspect, ptr %97, i32 0, i32 3
  %99 = getelementptr inbounds nuw %struct.ogg_sync_state, ptr %98, i32 0, i32 2
  %100 = load i32, ptr %99, align 4, !tbaa !67
  %101 = sext i32 %100 to i64
  %102 = sub i64 %96, %101
  %103 = load ptr, ptr %6, align 8, !tbaa !3
  %104 = getelementptr inbounds nuw %struct.FLAC__OggDecoderAspect, ptr %103, i32 0, i32 3
  %105 = getelementptr inbounds nuw %struct.ogg_sync_state, ptr %104, i32 0, i32 3
  %106 = load i32, ptr %105, align 8, !tbaa !68
  %107 = sext i32 %106 to i64
  %108 = add i64 %102, %107
  %109 = load ptr, ptr %6, align 8, !tbaa !3
  %110 = getelementptr inbounds nuw %struct.FLAC__OggDecoderAspect, ptr %109, i32 0, i32 13
  %111 = getelementptr inbounds nuw %struct.ogg_page, ptr %110, i32 0, i32 1
  %112 = load i64, ptr %111, align 8, !tbaa !75
  %113 = sub i64 %108, %112
  %114 = load ptr, ptr %6, align 8, !tbaa !3
  %115 = getelementptr inbounds nuw %struct.FLAC__OggDecoderAspect, ptr %114, i32 0, i32 13
  %116 = getelementptr inbounds nuw %struct.ogg_page, ptr %115, i32 0, i32 3
  %117 = load i64, ptr %116, align 8, !tbaa !73
  %118 = sub i64 %113, %117
  %119 = load ptr, ptr %6, align 8, !tbaa !3
  %120 = getelementptr inbounds nuw %struct.FLAC__OggDecoderAspect, ptr %119, i32 0, i32 16
  %121 = load ptr, ptr %120, align 8, !tbaa !34
  %122 = load ptr, ptr %6, align 8, !tbaa !3
  %123 = getelementptr inbounds nuw %struct.FLAC__OggDecoderAspect, ptr %122, i32 0, i32 22
  %124 = load i32, ptr %123, align 8, !tbaa !30
  %125 = zext i32 %124 to i64
  %126 = getelementptr inbounds nuw %struct.FLAC__OggDecoderAspect_LinkDetails, ptr %121, i64 %125
  %127 = getelementptr inbounds nuw %struct.FLAC__OggDecoderAspect_LinkDetails, ptr %126, i32 0, i32 1
  store i64 %118, ptr %127, align 8, !tbaa !47
  br label %128

128:                                              ; preds = %95, %89
  br label %129

129:                                              ; preds = %128, %68
  call void @llvm.lifetime.end.p0(i64 8, ptr %10) #9
  br label %130

130:                                              ; preds = %129, %43
  br label %131

131:                                              ; preds = %130, %35, %24, %18
  br label %132

132:                                              ; preds = %131, %4
  %133 = load ptr, ptr %6, align 8, !tbaa !3
  %134 = getelementptr inbounds nuw %struct.FLAC__OggDecoderAspect, ptr %133, i32 0, i32 7
  %135 = load i32, ptr %134, align 4, !tbaa !42
  %136 = icmp ne i32 %135, 0
  br i1 %136, label %137, label %151

137:                                              ; preds = %132
  %138 = load ptr, ptr %6, align 8, !tbaa !3
  %139 = getelementptr inbounds nuw %struct.FLAC__OggDecoderAspect, ptr %138, i32 0, i32 8
  %140 = load i32, ptr %139, align 8, !tbaa !43
  %141 = icmp ne i32 %140, 0
  br i1 %141, label %142, label %150

142:                                              ; preds = %137
  %143 = load ptr, ptr %6, align 8, !tbaa !3
  %144 = getelementptr inbounds nuw %struct.FLAC__OggDecoderAspect, ptr %143, i32 0, i32 13
  %145 = call i32 @ogg_page_bos(ptr noundef %144)
  %146 = icmp ne i32 %145, 0
  br i1 %146, label %150, label %147

147:                                              ; preds = %142
  %148 = load ptr, ptr %6, align 8, !tbaa !3
  %149 = getelementptr inbounds nuw %struct.FLAC__OggDecoderAspect, ptr %148, i32 0, i32 7
  store i32 0, ptr %149, align 4, !tbaa !42
  br label %150

150:                                              ; preds = %147, %142, %137
  br label %151

151:                                              ; preds = %150, %132
  %152 = load ptr, ptr %6, align 8, !tbaa !3
  %153 = getelementptr inbounds nuw %struct.FLAC__OggDecoderAspect, ptr %152, i32 0, i32 2
  %154 = load ptr, ptr %6, align 8, !tbaa !3
  %155 = getelementptr inbounds nuw %struct.FLAC__OggDecoderAspect, ptr %154, i32 0, i32 13
  %156 = call i32 @ogg_stream_pagein(ptr noundef %153, ptr noundef %155)
  %157 = icmp eq i32 %156, 0
  br i1 %157, label %158, label %163

158:                                              ; preds = %151
  %159 = load ptr, ptr %6, align 8, !tbaa !3
  %160 = getelementptr inbounds nuw %struct.FLAC__OggDecoderAspect, ptr %159, i32 0, i32 12
  store i32 1, ptr %160, align 8, !tbaa !27
  %161 = load ptr, ptr %6, align 8, !tbaa !3
  %162 = getelementptr inbounds nuw %struct.FLAC__OggDecoderAspect, ptr %161, i32 0, i32 14
  store i32 0, ptr %162, align 8, !tbaa !62
  br label %239

163:                                              ; preds = %151
  %164 = load ptr, ptr %6, align 8, !tbaa !3
  %165 = getelementptr inbounds nuw %struct.FLAC__OggDecoderAspect, ptr %164, i32 0, i32 7
  %166 = load i32, ptr %165, align 4, !tbaa !42
  %167 = icmp ne i32 %166, 0
  br i1 %167, label %168, label %238

168:                                              ; preds = %163
  %169 = load ptr, ptr %6, align 8, !tbaa !3
  %170 = getelementptr inbounds nuw %struct.FLAC__OggDecoderAspect, ptr %169, i32 0, i32 13
  %171 = call i32 @ogg_page_bos(ptr noundef %170)
  %172 = icmp ne i32 %171, 0
  br i1 %172, label %173, label %237

173:                                              ; preds = %168
  %174 = load ptr, ptr %6, align 8, !tbaa !3
  %175 = getelementptr inbounds nuw %struct.FLAC__OggDecoderAspect, ptr %174, i32 0, i32 8
  store i32 1, ptr %175, align 8, !tbaa !43
  %176 = load ptr, ptr %6, align 8, !tbaa !3
  %177 = getelementptr inbounds nuw %struct.FLAC__OggDecoderAspect, ptr %176, i32 0, i32 22
  %178 = load i32, ptr %177, align 8, !tbaa !30
  %179 = load ptr, ptr %6, align 8, !tbaa !3
  %180 = getelementptr inbounds nuw %struct.FLAC__OggDecoderAspect, ptr %179, i32 0, i32 19
  %181 = load i32, ptr %180, align 4, !tbaa !31
  %182 = icmp uge i32 %178, %181
  br i1 %182, label %183, label %236

183:                                              ; preds = %173
  call void @llvm.lifetime.start.p0(i64 8, ptr %11) #9
  %184 = load ptr, ptr %6, align 8, !tbaa !3
  %185 = getelementptr inbounds nuw %struct.FLAC__OggDecoderAspect, ptr %184, i32 0, i32 16
  %186 = load ptr, ptr %185, align 8, !tbaa !34
  %187 = load ptr, ptr %6, align 8, !tbaa !3
  %188 = getelementptr inbounds nuw %struct.FLAC__OggDecoderAspect, ptr %187, i32 0, i32 22
  %189 = load i32, ptr %188, align 8, !tbaa !30
  %190 = zext i32 %189 to i64
  %191 = getelementptr inbounds nuw %struct.FLAC__OggDecoderAspect_LinkDetails, ptr %186, i64 %190
  store ptr %191, ptr %11, align 8, !tbaa !72
  %192 = load ptr, ptr %11, align 8, !tbaa !72
  %193 = getelementptr inbounds nuw %struct.FLAC__OggDecoderAspect_LinkDetails, ptr %192, i32 0, i32 4
  %194 = load i32, ptr %193, align 8, !tbaa !76
  %195 = urem i32 %194, 4
  %196 = icmp eq i32 %195, 0
  br i1 %196, label %197, label %216

197:                                              ; preds = %183
  call void @llvm.lifetime.start.p0(i64 8, ptr %12) #9
  store ptr null, ptr %12, align 8, !tbaa !61
  %198 = load ptr, ptr %11, align 8, !tbaa !72
  %199 = getelementptr inbounds nuw %struct.FLAC__OggDecoderAspect_LinkDetails, ptr %198, i32 0, i32 5
  %200 = load ptr, ptr %199, align 8, !tbaa !38
  %201 = load ptr, ptr %11, align 8, !tbaa !72
  %202 = getelementptr inbounds nuw %struct.FLAC__OggDecoderAspect_LinkDetails, ptr %201, i32 0, i32 4
  %203 = load i32, ptr %202, align 8, !tbaa !76
  %204 = add i32 4, %203
  %205 = zext i32 %204 to i64
  %206 = call ptr @safe_realloc_nofree_mul_2op_(ptr noundef %200, i64 noundef %205, i64 noundef 8)
  store ptr %206, ptr %12, align 8, !tbaa !61
  %207 = icmp eq ptr null, %206
  br i1 %207, label %208, label %209

208:                                              ; preds = %197
  store i32 8, ptr %5, align 4
  store i32 1, ptr %13, align 4
  br label %213

209:                                              ; preds = %197
  %210 = load ptr, ptr %12, align 8, !tbaa !61
  %211 = load ptr, ptr %11, align 8, !tbaa !72
  %212 = getelementptr inbounds nuw %struct.FLAC__OggDecoderAspect_LinkDetails, ptr %211, i32 0, i32 5
  store ptr %210, ptr %212, align 8, !tbaa !38
  store i32 0, ptr %13, align 4
  br label %213

213:                                              ; preds = %209, %208
  call void @llvm.lifetime.end.p0(i64 8, ptr %12) #9
  %214 = load i32, ptr %13, align 4
  switch i32 %214, label %233 [
    i32 0, label %215
  ]

215:                                              ; preds = %213
  br label %216

216:                                              ; preds = %215, %183
  %217 = load ptr, ptr %6, align 8, !tbaa !3
  %218 = getelementptr inbounds nuw %struct.FLAC__OggDecoderAspect, ptr %217, i32 0, i32 13
  %219 = call i32 @ogg_page_serialno(ptr noundef %218)
  %220 = sext i32 %219 to i64
  %221 = load ptr, ptr %11, align 8, !tbaa !72
  %222 = getelementptr inbounds nuw %struct.FLAC__OggDecoderAspect_LinkDetails, ptr %221, i32 0, i32 5
  %223 = load ptr, ptr %222, align 8, !tbaa !38
  %224 = load ptr, ptr %11, align 8, !tbaa !72
  %225 = getelementptr inbounds nuw %struct.FLAC__OggDecoderAspect_LinkDetails, ptr %224, i32 0, i32 4
  %226 = load i32, ptr %225, align 8, !tbaa !76
  %227 = zext i32 %226 to i64
  %228 = getelementptr inbounds nuw i64, ptr %223, i64 %227
  store i64 %220, ptr %228, align 8, !tbaa !36
  %229 = load ptr, ptr %11, align 8, !tbaa !72
  %230 = getelementptr inbounds nuw %struct.FLAC__OggDecoderAspect_LinkDetails, ptr %229, i32 0, i32 4
  %231 = load i32, ptr %230, align 8, !tbaa !76
  %232 = add i32 %231, 1
  store i32 %232, ptr %230, align 8, !tbaa !76
  store i32 0, ptr %13, align 4
  br label %233

233:                                              ; preds = %216, %213
  call void @llvm.lifetime.end.p0(i64 8, ptr %11) #9
  %234 = load i32, ptr %13, align 4
  switch i32 %234, label %242 [
    i32 0, label %235
    i32 1, label %240
  ]

235:                                              ; preds = %233
  br label %236

236:                                              ; preds = %235, %173
  br label %237

237:                                              ; preds = %236, %168
  br label %238

238:                                              ; preds = %237, %163
  br label %239

239:                                              ; preds = %238, %158
  store i32 0, ptr %5, align 4
  br label %240

240:                                              ; preds = %239, %233
  %241 = load i32, ptr %5, align 4
  ret i32 %241

242:                                              ; preds = %233
  unreachable
}