; Function Attrs: nounwind sspstrong uwtable
define internal fastcc range(i32 0, 9) i32 @process_page_(ptr noundef %0, ptr noundef readonly %1, ptr noundef %2, ptr noundef %3) unnamed_addr #2 {
  %5 = alloca i64, align 8
  %6 = getelementptr inbounds nuw i8, ptr %0, i64 464
  %7 = load i32, ptr %6, align 8, !tbaa !23
  %.not = icmp eq i32 %7, 0
  br i1 %.not, label %62, label %8

8:                                                ; preds = %4
  %9 = getelementptr inbounds nuw i8, ptr %0, i64 496
  %10 = getelementptr inbounds nuw i8, ptr %0, i64 520
  %11 = load i64, ptr %10, align 8, !tbaa !63
  %12 = icmp sgt i64 %11, 5
  br i1 %12, label %13, label %62

13:                                               ; preds = %8
  %14 = getelementptr inbounds nuw i8, ptr %0, i64 512
  %15 = load ptr, ptr %14, align 8, !tbaa !64
  %16 = load i8, ptr %15, align 1, !tbaa !60
  %17 = load i8, ptr @FLAC__OGG_MAPPING_FIRST_HEADER_PACKET_TYPE, align 1, !tbaa !60
  %18 = icmp eq i8 %16, %17
  br i1 %18, label %19, label %62

19:                                               ; preds = %13
  %20 = load ptr, ptr @FLAC__OGG_MAPPING_MAGIC, align 8, !tbaa !65
  %bcmp = tail call i32 @bcmp(ptr noundef nonnull dereferenceable(4) %10, ptr noundef nonnull dereferenceable(4) %20, i64 4)
  %.not58 = icmp eq i32 %bcmp, 0
  br i1 %.not58, label %62, label %21

21:                                               ; preds = %19
  %22 = getelementptr inbounds nuw i8, ptr %0, i64 472
  store i32 1, ptr %22, align 8, !tbaa !36
  %23 = tail call i32 @ogg_page_serialno(ptr noundef nonnull %9) #15
  %24 = sext i32 %23 to i64
  %25 = getelementptr inbounds nuw i8, ptr %0, i64 8
  store i64 %24, ptr %25, align 8, !tbaa !3
  %26 = getelementptr inbounds nuw i8, ptr %0, i64 16
  %27 = tail call i32 @ogg_stream_reset_serialno(ptr noundef nonnull %26, i32 noundef %23) #15
  store i32 0, ptr %6, align 8, !tbaa !23
  %28 = getelementptr inbounds nuw i8, ptr %0, i64 656
  %29 = load i32, ptr %28, align 8, !tbaa !34
  %30 = getelementptr inbounds nuw i8, ptr %0, i64 640
  %31 = load i32, ptr %30, align 8, !tbaa !66
  %.not59 = icmp ult i32 %29, %31
  br i1 %.not59, label %62, label %32

32:                                               ; preds = %21
  call void @llvm.lifetime.start.p0(i64 8, ptr nonnull %5) #15
  %33 = add i32 %29, 1
  store i32 %33, ptr %30, align 8, !tbaa !66
  %34 = load i64, ptr %25, align 8, !tbaa !3
  %35 = getelementptr inbounds nuw i8, ptr %0, i64 584
  %36 = load ptr, ptr %35, align 8, !tbaa !27
  %37 = zext i32 %29 to i64
  %38 = getelementptr inbounds nuw %struct.FLAC__OggDecoderAspect_LinkDetails, ptr %36, i64 %37
  store i64 %34, ptr %38, align 8, !tbaa !39
  %.not60 = icmp eq ptr %1, null
  br i1 %.not60, label %61, label %39

39:                                               ; preds = %32
  %40 = call i32 %1(ptr noundef %2, ptr noundef nonnull %5, ptr noundef %3) #15
  %41 = icmp eq i32 %40, 0
  br i1 %41, label %42, label %61

42:                                               ; preds = %39
  %43 = load i64, ptr %5, align 8, !tbaa !52
  %44 = getelementptr inbounds nuw i8, ptr %0, i64 436
  %45 = load i32, ptr %44, align 4, !tbaa !58
  %46 = sext i32 %45 to i64
  %47 = getelementptr inbounds nuw i8, ptr %0, i64 440
  %48 = load i32, ptr %47, align 8, !tbaa !59
  %49 = sext i32 %48 to i64
  %50 = getelementptr inbounds nuw i8, ptr %0, i64 504
  %51 = load i64, ptr %50, align 8, !tbaa !67
  %52 = load i64, ptr %10, align 8, !tbaa !63
  %53 = add i64 %43, %49
  %54 = add i64 %51, %46
  %55 = add i64 %54, %52
  %56 = sub i64 %53, %55
  %57 = load ptr, ptr %35, align 8, !tbaa !27
  %58 = load i32, ptr %28, align 8, !tbaa !34
  %59 = zext i32 %58 to i64
  %60 = getelementptr inbounds nuw %struct.FLAC__OggDecoderAspect_LinkDetails, ptr %57, i64 %59, i32 1
  store i64 %56, ptr %60, align 8, !tbaa !41
  br label %61

61:                                               ; preds = %39, %42, %32
  call void @llvm.lifetime.end.p0(i64 8, ptr nonnull %5) #15
  br label %62

62:                                               ; preds = %8, %13, %19, %61, %21, %4
  %63 = getelementptr inbounds nuw i8, ptr %0, i64 468
  %64 = load i32, ptr %63, align 4, !tbaa !35
  %.not61 = icmp eq i32 %64, 0
  br i1 %.not61, label %72, label %65

65:                                               ; preds = %62
  %66 = getelementptr inbounds nuw i8, ptr %0, i64 472
  %67 = load i32, ptr %66, align 8, !tbaa !36
  %.not62 = icmp eq i32 %67, 0
  br i1 %.not62, label %72, label %68

68:                                               ; preds = %65
  %69 = getelementptr inbounds nuw i8, ptr %0, i64 496
  %70 = call i32 @ogg_page_bos(ptr noundef nonnull %69) #15
  %.not63 = icmp eq i32 %70, 0
  br i1 %.not63, label %71, label %72

71:                                               ; preds = %68
  store i32 0, ptr %63, align 4, !tbaa !35
  br label %72

72:                                               ; preds = %65, %68, %71, %62
  %73 = getelementptr inbounds nuw i8, ptr %0, i64 16
  %74 = getelementptr inbounds nuw i8, ptr %0, i64 496
  %75 = call i32 @ogg_stream_pagein(ptr noundef nonnull %73, ptr noundef nonnull %74) #15
  %76 = icmp eq i32 %75, 0
  br i1 %76, label %77, label %80

77:                                               ; preds = %72
  %78 = getelementptr inbounds nuw i8, ptr %0, i64 488
  store i32 1, ptr %78, align 8, !tbaa !25
  %79 = getelementptr inbounds nuw i8, ptr %0, i64 528
  store i32 0, ptr %79, align 8, !tbaa !53
  br label %.critedge

80:                                               ; preds = %72
  %81 = load i32, ptr %63, align 4, !tbaa !35
  %.not64 = icmp eq i32 %81, 0
  br i1 %.not64, label %.critedge, label %82

82:                                               ; preds = %80
  %83 = call i32 @ogg_page_bos(ptr noundef nonnull %74) #15
  %.not65 = icmp eq i32 %83, 0
  br i1 %.not65, label %.critedge, label %84

84:                                               ; preds = %82
  %85 = getelementptr inbounds nuw i8, ptr %0, i64 472
  store i32 1, ptr %85, align 8, !tbaa !36
  %86 = getelementptr inbounds nuw i8, ptr %0, i64 656
  %87 = load i32, ptr %86, align 8, !tbaa !34
  %88 = getelementptr inbounds nuw i8, ptr %0, i64 644
  %89 = load i32, ptr %88, align 4, !tbaa !37
  %.not66 = icmp ult i32 %87, %89
  br i1 %.not66, label %.critedge, label %90

90:                                               ; preds = %84
  %91 = getelementptr inbounds nuw i8, ptr %0, i64 584
  %92 = load ptr, ptr %91, align 8, !tbaa !27
  %93 = zext i32 %87 to i64
  %94 = getelementptr inbounds nuw %struct.FLAC__OggDecoderAspect_LinkDetails, ptr %92, i64 %93
  %95 = getelementptr inbounds nuw i8, ptr %94, i64 32
  %96 = load i32, ptr %95, align 8, !tbaa !68
  %97 = and i32 %96, 3
  %98 = icmp eq i32 %97, 0
  br i1 %98, label %99, label %.critedge.thread

99:                                               ; preds = %90
  %100 = getelementptr inbounds nuw i8, ptr %94, i64 40
  %101 = load ptr, ptr %100, align 8, !tbaa !29
  %102 = add i32 %96, 4
  %103 = zext i32 %102 to i64
  %104 = shl nuw nsw i64 %103, 3
  %105 = call noalias noundef ptr @realloc(ptr noundef %101, i64 noundef %104) #16
  %.not67 = icmp eq ptr %105, null
  br i1 %.not67, label %.critedge, label %106

106:                                              ; preds = %99
  store ptr %105, ptr %100, align 8, !tbaa !29
  br label %.critedge.thread

.critedge.thread:                                 ; preds = %90, %106
  %107 = call i32 @ogg_page_serialno(ptr noundef nonnull %74) #15
  %108 = sext i32 %107 to i64
  %109 = getelementptr inbounds nuw i8, ptr %94, i64 40
  %110 = load ptr, ptr %109, align 8, !tbaa !29
  %111 = load i32, ptr %95, align 8, !tbaa !68
  %112 = zext i32 %111 to i64
  %113 = getelementptr inbounds nuw i64, ptr %110, i64 %112
  store i64 %108, ptr %113, align 8, !tbaa !52
  %114 = add i32 %111, 1
  store i32 %114, ptr %95, align 8, !tbaa !68
  br label %.critedge

.critedge:                                        ; preds = %77, %82, %84, %80, %.critedge.thread, %99
  %.3 = phi i32 [ 8, %99 ], [ 0, %.critedge.thread ], [ 0, %80 ], [ 0, %84 ], [ 0, %82 ], [ 0, %77 ]
  ret i32 %.3
}